
build/epoll.elf:     file format elf64-x86-64


Disassembly of section .init:

0000000000001000 <_init>:
    1000:	f3 0f 1e fa          	endbr64
    1004:	48 83 ec 08          	sub    rsp,0x8
    1008:	48 8b 05 d1 2f 00 00 	mov    rax,QWORD PTR [rip+0x2fd1]        # 3fe0 <__gmon_start__@Base>
    100f:	48 85 c0             	test   rax,rax
    1012:	74 02                	je     1016 <_init+0x16>
    1014:	ff d0                	call   rax
    1016:	48 83 c4 08          	add    rsp,0x8
    101a:	c3                   	ret

Disassembly of section .plt:

0000000000001020 <.plt>:
    1020:	ff 35 f2 2e 00 00    	push   QWORD PTR [rip+0x2ef2]        # 3f18 <_GLOBAL_OFFSET_TABLE_+0x8>
    1026:	ff 25 f4 2e 00 00    	jmp    QWORD PTR [rip+0x2ef4]        # 3f20 <_GLOBAL_OFFSET_TABLE_+0x10>
    102c:	0f 1f 40 00          	nop    DWORD PTR [rax+0x0]
    1030:	f3 0f 1e fa          	endbr64
    1034:	68 00 00 00 00       	push   0x0
    1039:	e9 e2 ff ff ff       	jmp    1020 <_init+0x20>
    103e:	66 90                	xchg   ax,ax
    1040:	f3 0f 1e fa          	endbr64
    1044:	68 01 00 00 00       	push   0x1
    1049:	e9 d2 ff ff ff       	jmp    1020 <_init+0x20>
    104e:	66 90                	xchg   ax,ax
    1050:	f3 0f 1e fa          	endbr64
    1054:	68 02 00 00 00       	push   0x2
    1059:	e9 c2 ff ff ff       	jmp    1020 <_init+0x20>
    105e:	66 90                	xchg   ax,ax
    1060:	f3 0f 1e fa          	endbr64
    1064:	68 03 00 00 00       	push   0x3
    1069:	e9 b2 ff ff ff       	jmp    1020 <_init+0x20>
    106e:	66 90                	xchg   ax,ax
    1070:	f3 0f 1e fa          	endbr64
    1074:	68 04 00 00 00       	push   0x4
    1079:	e9 a2 ff ff ff       	jmp    1020 <_init+0x20>
    107e:	66 90                	xchg   ax,ax
    1080:	f3 0f 1e fa          	endbr64
    1084:	68 05 00 00 00       	push   0x5
    1089:	e9 92 ff ff ff       	jmp    1020 <_init+0x20>
    108e:	66 90                	xchg   ax,ax
    1090:	f3 0f 1e fa          	endbr64
    1094:	68 06 00 00 00       	push   0x6
    1099:	e9 82 ff ff ff       	jmp    1020 <_init+0x20>
    109e:	66 90                	xchg   ax,ax
    10a0:	f3 0f 1e fa          	endbr64
    10a4:	68 07 00 00 00       	push   0x7
    10a9:	e9 72 ff ff ff       	jmp    1020 <_init+0x20>
    10ae:	66 90                	xchg   ax,ax
    10b0:	f3 0f 1e fa          	endbr64
    10b4:	68 08 00 00 00       	push   0x8
    10b9:	e9 62 ff ff ff       	jmp    1020 <_init+0x20>
    10be:	66 90                	xchg   ax,ax
    10c0:	f3 0f 1e fa          	endbr64
    10c4:	68 09 00 00 00       	push   0x9
    10c9:	e9 52 ff ff ff       	jmp    1020 <_init+0x20>
    10ce:	66 90                	xchg   ax,ax
    10d0:	f3 0f 1e fa          	endbr64
    10d4:	68 0a 00 00 00       	push   0xa
    10d9:	e9 42 ff ff ff       	jmp    1020 <_init+0x20>
    10de:	66 90                	xchg   ax,ax
    10e0:	f3 0f 1e fa          	endbr64
    10e4:	68 0b 00 00 00       	push   0xb
    10e9:	e9 32 ff ff ff       	jmp    1020 <_init+0x20>
    10ee:	66 90                	xchg   ax,ax
    10f0:	f3 0f 1e fa          	endbr64
    10f4:	68 0c 00 00 00       	push   0xc
    10f9:	e9 22 ff ff ff       	jmp    1020 <_init+0x20>
    10fe:	66 90                	xchg   ax,ax
    1100:	f3 0f 1e fa          	endbr64
    1104:	68 0d 00 00 00       	push   0xd
    1109:	e9 12 ff ff ff       	jmp    1020 <_init+0x20>
    110e:	66 90                	xchg   ax,ax
    1110:	f3 0f 1e fa          	endbr64
    1114:	68 0e 00 00 00       	push   0xe
    1119:	e9 02 ff ff ff       	jmp    1020 <_init+0x20>
    111e:	66 90                	xchg   ax,ax
    1120:	f3 0f 1e fa          	endbr64
    1124:	68 0f 00 00 00       	push   0xf
    1129:	e9 f2 fe ff ff       	jmp    1020 <_init+0x20>
    112e:	66 90                	xchg   ax,ax
    1130:	f3 0f 1e fa          	endbr64
    1134:	68 10 00 00 00       	push   0x10
    1139:	e9 e2 fe ff ff       	jmp    1020 <_init+0x20>
    113e:	66 90                	xchg   ax,ax
    1140:	f3 0f 1e fa          	endbr64
    1144:	68 11 00 00 00       	push   0x11
    1149:	e9 d2 fe ff ff       	jmp    1020 <_init+0x20>
    114e:	66 90                	xchg   ax,ax
    1150:	f3 0f 1e fa          	endbr64
    1154:	68 12 00 00 00       	push   0x12
    1159:	e9 c2 fe ff ff       	jmp    1020 <_init+0x20>
    115e:	66 90                	xchg   ax,ax
    1160:	f3 0f 1e fa          	endbr64
    1164:	68 13 00 00 00       	push   0x13
    1169:	e9 b2 fe ff ff       	jmp    1020 <_init+0x20>
    116e:	66 90                	xchg   ax,ax
    1170:	f3 0f 1e fa          	endbr64
    1174:	68 14 00 00 00       	push   0x14
    1179:	e9 a2 fe ff ff       	jmp    1020 <_init+0x20>
    117e:	66 90                	xchg   ax,ax

Disassembly of section .plt.got:

0000000000001180 <__cxa_finalize@plt>:
    1180:	f3 0f 1e fa          	endbr64
    1184:	ff 25 66 2e 00 00    	jmp    QWORD PTR [rip+0x2e66]        # 3ff0 <__cxa_finalize@GLIBC_2.2.5>
    118a:	66 0f 1f 44 00 00    	nop    WORD PTR [rax+rax*1+0x0]

Disassembly of section .plt.sec:

0000000000001190 <free@plt>:
    1190:	f3 0f 1e fa          	endbr64
    1194:	ff 25 8e 2d 00 00    	jmp    QWORD PTR [rip+0x2d8e]        # 3f28 <free@GLIBC_2.2.5>
    119a:	66 0f 1f 44 00 00    	nop    WORD PTR [rax+rax*1+0x0]

00000000000011a0 <__errno_location@plt>:
    11a0:	f3 0f 1e fa          	endbr64
    11a4:	ff 25 86 2d 00 00    	jmp    QWORD PTR [rip+0x2d86]        # 3f30 <__errno_location@GLIBC_2.2.5>
    11aa:	66 0f 1f 44 00 00    	nop    WORD PTR [rax+rax*1+0x0]

00000000000011b0 <puts@plt>:
    11b0:	f3 0f 1e fa          	endbr64
    11b4:	ff 25 7e 2d 00 00    	jmp    QWORD PTR [rip+0x2d7e]        # 3f38 <puts@GLIBC_2.2.5>
    11ba:	66 0f 1f 44 00 00    	nop    WORD PTR [rax+rax*1+0x0]

00000000000011c0 <write@plt>:
    11c0:	f3 0f 1e fa          	endbr64
    11c4:	ff 25 76 2d 00 00    	jmp    QWORD PTR [rip+0x2d76]        # 3f40 <write@GLIBC_2.2.5>
    11ca:	66 0f 1f 44 00 00    	nop    WORD PTR [rax+rax*1+0x0]

00000000000011d0 <__stack_chk_fail@plt>:
    11d0:	f3 0f 1e fa          	endbr64
    11d4:	ff 25 6e 2d 00 00    	jmp    QWORD PTR [rip+0x2d6e]        # 3f48 <__stack_chk_fail@GLIBC_2.4>
    11da:	66 0f 1f 44 00 00    	nop    WORD PTR [rax+rax*1+0x0]

00000000000011e0 <accept4@plt>:
    11e0:	f3 0f 1e fa          	endbr64
    11e4:	ff 25 66 2d 00 00    	jmp    QWORD PTR [rip+0x2d66]        # 3f50 <accept4@GLIBC_2.10>
    11ea:	66 0f 1f 44 00 00    	nop    WORD PTR [rax+rax*1+0x0]

00000000000011f0 <htons@plt>:
    11f0:	f3 0f 1e fa          	endbr64
    11f4:	ff 25 5e 2d 00 00    	jmp    QWORD PTR [rip+0x2d5e]        # 3f58 <htons@GLIBC_2.2.5>
    11fa:	66 0f 1f 44 00 00    	nop    WORD PTR [rax+rax*1+0x0]

0000000000001200 <printf@plt>:
    1200:	f3 0f 1e fa          	endbr64
    1204:	ff 25 56 2d 00 00    	jmp    QWORD PTR [rip+0x2d56]        # 3f60 <printf@GLIBC_2.2.5>
    120a:	66 0f 1f 44 00 00    	nop    WORD PTR [rax+rax*1+0x0]

0000000000001210 <close@plt>:
    1210:	f3 0f 1e fa          	endbr64
    1214:	ff 25 4e 2d 00 00    	jmp    QWORD PTR [rip+0x2d4e]        # 3f68 <close@GLIBC_2.2.5>
    121a:	66 0f 1f 44 00 00    	nop    WORD PTR [rax+rax*1+0x0]

0000000000001220 <epoll_ctl@plt>:
    1220:	f3 0f 1e fa          	endbr64
    1224:	ff 25 46 2d 00 00    	jmp    QWORD PTR [rip+0x2d46]        # 3f70 <epoll_ctl@GLIBC_2.3.2>
    122a:	66 0f 1f 44 00 00    	nop    WORD PTR [rax+rax*1+0x0]

0000000000001230 <read@plt>:
    1230:	f3 0f 1e fa          	endbr64
    1234:	ff 25 3e 2d 00 00    	jmp    QWORD PTR [rip+0x2d3e]        # 3f78 <read@GLIBC_2.2.5>
    123a:	66 0f 1f 44 00 00    	nop    WORD PTR [rax+rax*1+0x0]

0000000000001240 <fprintf@plt>:
    1240:	f3 0f 1e fa          	endbr64
    1244:	ff 25 36 2d 00 00    	jmp    QWORD PTR [rip+0x2d36]        # 3f80 <fprintf@GLIBC_2.2.5>
    124a:	66 0f 1f 44 00 00    	nop    WORD PTR [rax+rax*1+0x0]

0000000000001250 <inet_pton@plt>:
    1250:	f3 0f 1e fa          	endbr64
    1254:	ff 25 2e 2d 00 00    	jmp    QWORD PTR [rip+0x2d2e]        # 3f88 <inet_pton@GLIBC_2.2.5>
    125a:	66 0f 1f 44 00 00    	nop    WORD PTR [rax+rax*1+0x0]

0000000000001260 <malloc@plt>:
    1260:	f3 0f 1e fa          	endbr64
    1264:	ff 25 26 2d 00 00    	jmp    QWORD PTR [rip+0x2d26]        # 3f90 <malloc@GLIBC_2.2.5>
    126a:	66 0f 1f 44 00 00    	nop    WORD PTR [rax+rax*1+0x0]

0000000000001270 <listen@plt>:
    1270:	f3 0f 1e fa          	endbr64
    1274:	ff 25 1e 2d 00 00    	jmp    QWORD PTR [rip+0x2d1e]        # 3f98 <listen@GLIBC_2.2.5>
    127a:	66 0f 1f 44 00 00    	nop    WORD PTR [rax+rax*1+0x0]

0000000000001280 <epoll_wait@plt>:
    1280:	f3 0f 1e fa          	endbr64
    1284:	ff 25 16 2d 00 00    	jmp    QWORD PTR [rip+0x2d16]        # 3fa0 <epoll_wait@GLIBC_2.3.2>
    128a:	66 0f 1f 44 00 00    	nop    WORD PTR [rax+rax*1+0x0]

0000000000001290 <bind@plt>:
    1290:	f3 0f 1e fa          	endbr64
    1294:	ff 25 0e 2d 00 00    	jmp    QWORD PTR [rip+0x2d0e]        # 3fa8 <bind@GLIBC_2.2.5>
    129a:	66 0f 1f 44 00 00    	nop    WORD PTR [rax+rax*1+0x0]

00000000000012a0 <perror@plt>:
    12a0:	f3 0f 1e fa          	endbr64
    12a4:	ff 25 06 2d 00 00    	jmp    QWORD PTR [rip+0x2d06]        # 3fb0 <perror@GLIBC_2.2.5>
    12aa:	66 0f 1f 44 00 00    	nop    WORD PTR [rax+rax*1+0x0]

00000000000012b0 <atoi@plt>:
    12b0:	f3 0f 1e fa          	endbr64
    12b4:	ff 25 fe 2c 00 00    	jmp    QWORD PTR [rip+0x2cfe]        # 3fb8 <atoi@GLIBC_2.2.5>
    12ba:	66 0f 1f 44 00 00    	nop    WORD PTR [rax+rax*1+0x0]

00000000000012c0 <epoll_create1@plt>:
    12c0:	f3 0f 1e fa          	endbr64
    12c4:	ff 25 f6 2c 00 00    	jmp    QWORD PTR [rip+0x2cf6]        # 3fc0 <epoll_create1@GLIBC_2.9>
    12ca:	66 0f 1f 44 00 00    	nop    WORD PTR [rax+rax*1+0x0]

00000000000012d0 <socket@plt>:
    12d0:	f3 0f 1e fa          	endbr64
    12d4:	ff 25 ee 2c 00 00    	jmp    QWORD PTR [rip+0x2cee]        # 3fc8 <socket@GLIBC_2.2.5>
    12da:	66 0f 1f 44 00 00    	nop    WORD PTR [rax+rax*1+0x0]

Disassembly of section .text:

00000000000012e0 <_start>:
    12e0:	f3 0f 1e fa          	endbr64
    12e4:	31 ed                	xor    ebp,ebp
    12e6:	49 89 d1             	mov    r9,rdx
    12e9:	5e                   	pop    rsi
    12ea:	48 89 e2             	mov    rdx,rsp
    12ed:	48 83 e4 f0          	and    rsp,0xfffffffffffffff0
    12f1:	50                   	push   rax
    12f2:	54                   	push   rsp
    12f3:	45 31 c0             	xor    r8d,r8d
    12f6:	31 c9                	xor    ecx,ecx
    12f8:	48 8d 3d ef 01 00 00 	lea    rdi,[rip+0x1ef]        # 14ee <main>
    12ff:	ff 15 cb 2c 00 00    	call   QWORD PTR [rip+0x2ccb]        # 3fd0 <__libc_start_main@GLIBC_2.34>
    1305:	f4                   	hlt
    1306:	66 2e 0f 1f 84 00 00 	cs nop WORD PTR [rax+rax*1+0x0]
    130d:	00 00 00 

0000000000001310 <deregister_tm_clones>:
    1310:	48 8d 3d f9 2c 00 00 	lea    rdi,[rip+0x2cf9]        # 4010 <__TMC_END__>
    1317:	48 8d 05 f2 2c 00 00 	lea    rax,[rip+0x2cf2]        # 4010 <__TMC_END__>
    131e:	48 39 f8             	cmp    rax,rdi
    1321:	74 15                	je     1338 <deregister_tm_clones+0x28>
    1323:	48 8b 05 ae 2c 00 00 	mov    rax,QWORD PTR [rip+0x2cae]        # 3fd8 <_ITM_deregisterTMCloneTable@Base>
    132a:	48 85 c0             	test   rax,rax
    132d:	74 09                	je     1338 <deregister_tm_clones+0x28>
    132f:	ff e0                	jmp    rax
    1331:	0f 1f 80 00 00 00 00 	nop    DWORD PTR [rax+0x0]
    1338:	c3                   	ret
    1339:	0f 1f 80 00 00 00 00 	nop    DWORD PTR [rax+0x0]

0000000000001340 <register_tm_clones>:
    1340:	48 8d 3d c9 2c 00 00 	lea    rdi,[rip+0x2cc9]        # 4010 <__TMC_END__>
    1347:	48 8d 35 c2 2c 00 00 	lea    rsi,[rip+0x2cc2]        # 4010 <__TMC_END__>
    134e:	48 29 fe             	sub    rsi,rdi
    1351:	48 89 f0             	mov    rax,rsi
    1354:	48 c1 ee 3f          	shr    rsi,0x3f
    1358:	48 c1 f8 03          	sar    rax,0x3
    135c:	48 01 c6             	add    rsi,rax
    135f:	48 d1 fe             	sar    rsi,1
    1362:	74 14                	je     1378 <register_tm_clones+0x38>
    1364:	48 8b 05 7d 2c 00 00 	mov    rax,QWORD PTR [rip+0x2c7d]        # 3fe8 <_ITM_registerTMCloneTable@Base>
    136b:	48 85 c0             	test   rax,rax
    136e:	74 08                	je     1378 <register_tm_clones+0x38>
    1370:	ff e0                	jmp    rax
    1372:	66 0f 1f 44 00 00    	nop    WORD PTR [rax+rax*1+0x0]
    1378:	c3                   	ret
    1379:	0f 1f 80 00 00 00 00 	nop    DWORD PTR [rax+0x0]

0000000000001380 <__do_global_dtors_aux>:
    1380:	f3 0f 1e fa          	endbr64
    1384:	80 3d 85 2c 00 00 00 	cmp    BYTE PTR [rip+0x2c85],0x0        # 4010 <__TMC_END__>
    138b:	75 2b                	jne    13b8 <__do_global_dtors_aux+0x38>
    138d:	55                   	push   rbp
    138e:	48 83 3d 5a 2c 00 00 	cmp    QWORD PTR [rip+0x2c5a],0x0        # 3ff0 <__cxa_finalize@GLIBC_2.2.5>
    1395:	00 
    1396:	48 89 e5             	mov    rbp,rsp
    1399:	74 0c                	je     13a7 <__do_global_dtors_aux+0x27>
    139b:	48 8b 3d 66 2c 00 00 	mov    rdi,QWORD PTR [rip+0x2c66]        # 4008 <__dso_handle>
    13a2:	e8 d9 fd ff ff       	call   1180 <__cxa_finalize@plt>
    13a7:	e8 64 ff ff ff       	call   1310 <deregister_tm_clones>
    13ac:	c6 05 5d 2c 00 00 01 	mov    BYTE PTR [rip+0x2c5d],0x1        # 4010 <__TMC_END__>
    13b3:	5d                   	pop    rbp
    13b4:	c3                   	ret
    13b5:	0f 1f 00             	nop    DWORD PTR [rax]
    13b8:	c3                   	ret
    13b9:	0f 1f 80 00 00 00 00 	nop    DWORD PTR [rax+0x0]

00000000000013c0 <frame_dummy>:
    13c0:	f3 0f 1e fa          	endbr64
    13c4:	e9 77 ff ff ff       	jmp    1340 <register_tm_clones>

00000000000013c9 <create_listner>:
    13c9:	f3 0f 1e fa          	endbr64
    13cd:	55                   	push   rbp
    13ce:	48 89 e5             	mov    rbp,rsp
    13d1:	48 83 ec 40          	sub    rsp,0x40
    13d5:	48 89 7d c8          	mov    QWORD PTR [rbp-0x38],rdi
    13d9:	64 48 8b 04 25 28 00 	mov    rax,QWORD PTR fs:0x28
    13e0:	00 00 
    13e2:	48 89 45 f8          	mov    QWORD PTR [rbp-0x8],rax
    13e6:	31 c0                	xor    eax,eax
    13e8:	48 8b 45 c8          	mov    rax,QWORD PTR [rbp-0x38]
    13ec:	48 89 c7             	mov    rdi,rax
    13ef:	e8 bc fe ff ff       	call   12b0 <atoi@plt>
    13f4:	89 45 d8             	mov    DWORD PTR [rbp-0x28],eax
    13f7:	c7 45 dc 00 00 00 00 	mov    DWORD PTR [rbp-0x24],0x0
    13fe:	c7 45 d4 00 00 00 00 	mov    DWORD PTR [rbp-0x2c],0x0
    1405:	48 8d 45 d4          	lea    rax,[rbp-0x2c]
    1409:	48 89 c2             	mov    rdx,rax
    140c:	48 8d 05 f1 0b 00 00 	lea    rax,[rip+0xbf1]        # 2004 <_IO_stdin_used+0x4>
    1413:	48 89 c6             	mov    rsi,rax
    1416:	bf 02 00 00 00       	mov    edi,0x2
    141b:	e8 30 fe ff ff       	call   1250 <inet_pton@plt>
    1420:	48 c7 45 e0 00 00 00 	mov    QWORD PTR [rbp-0x20],0x0
    1427:	00 
    1428:	48 c7 45 e8 00 00 00 	mov    QWORD PTR [rbp-0x18],0x0
    142f:	00 
    1430:	66 c7 45 e0 02 00    	mov    WORD PTR [rbp-0x20],0x2
    1436:	8b 45 d8             	mov    eax,DWORD PTR [rbp-0x28]
    1439:	0f b7 c0             	movzx  eax,ax
    143c:	89 c7                	mov    edi,eax
    143e:	e8 ad fd ff ff       	call   11f0 <htons@plt>
    1443:	66 89 45 e2          	mov    WORD PTR [rbp-0x1e],ax
    1447:	8b 45 d4             	mov    eax,DWORD PTR [rbp-0x2c]
    144a:	89 45 e4             	mov    DWORD PTR [rbp-0x1c],eax
    144d:	ba 00 00 00 00       	mov    edx,0x0
    1452:	be 01 08 00 00       	mov    esi,0x801
    1457:	bf 02 00 00 00       	mov    edi,0x2
    145c:	e8 6f fe ff ff       	call   12d0 <socket@plt>
    1461:	89 45 dc             	mov    DWORD PTR [rbp-0x24],eax
    1464:	83 7d dc 00          	cmp    DWORD PTR [rbp-0x24],0x0
    1468:	79 0f                	jns    1479 <create_listner+0xb0>
    146a:	48 8d 05 9d 0b 00 00 	lea    rax,[rip+0xb9d]        # 200e <_IO_stdin_used+0xe>
    1471:	48 89 c7             	mov    rdi,rax
    1474:	e8 27 fe ff ff       	call   12a0 <perror@plt>
    1479:	48 8d 45 e0          	lea    rax,[rbp-0x20]
    147d:	48 89 c1             	mov    rcx,rax
    1480:	8b 45 dc             	mov    eax,DWORD PTR [rbp-0x24]
    1483:	ba 10 00 00 00       	mov    edx,0x10
    1488:	48 89 ce             	mov    rsi,rcx
    148b:	89 c7                	mov    edi,eax
    148d:	e8 fe fd ff ff       	call   1290 <bind@plt>
    1492:	85 c0                	test   eax,eax
    1494:	79 16                	jns    14ac <create_listner+0xe3>
    1496:	48 8d 05 79 0b 00 00 	lea    rax,[rip+0xb79]        # 2016 <_IO_stdin_used+0x16>
    149d:	48 89 c7             	mov    rdi,rax
    14a0:	e8 fb fd ff ff       	call   12a0 <perror@plt>
    14a5:	b8 ff ff ff ff       	mov    eax,0xffffffff
    14aa:	eb 2c                	jmp    14d8 <create_listner+0x10f>
    14ac:	8b 45 dc             	mov    eax,DWORD PTR [rbp-0x24]
    14af:	be 00 10 00 00       	mov    esi,0x1000
    14b4:	89 c7                	mov    edi,eax
    14b6:	e8 b5 fd ff ff       	call   1270 <listen@plt>
    14bb:	85 c0                	test   eax,eax
    14bd:	79 16                	jns    14d5 <create_listner+0x10c>
    14bf:	48 8d 05 56 0b 00 00 	lea    rax,[rip+0xb56]        # 201c <_IO_stdin_used+0x1c>
    14c6:	48 89 c7             	mov    rdi,rax
    14c9:	e8 d2 fd ff ff       	call   12a0 <perror@plt>
    14ce:	b8 ff ff ff ff       	mov    eax,0xffffffff
    14d3:	eb 03                	jmp    14d8 <create_listner+0x10f>
    14d5:	8b 45 dc             	mov    eax,DWORD PTR [rbp-0x24]
    14d8:	48 8b 55 f8          	mov    rdx,QWORD PTR [rbp-0x8]
    14dc:	64 48 2b 14 25 28 00 	sub    rdx,QWORD PTR fs:0x28
    14e3:	00 00 
    14e5:	74 05                	je     14ec <create_listner+0x123>
    14e7:	e8 e4 fc ff ff       	call   11d0 <__stack_chk_fail@plt>
    14ec:	c9                   	leave
    14ed:	c3                   	ret

00000000000014ee <main>:
    14ee:	f3 0f 1e fa          	endbr64
    14f2:	55                   	push   rbp
    14f3:	48 89 e5             	mov    rbp,rsp
    14f6:	48 81 ec 40 04 00 00 	sub    rsp,0x440
    14fd:	89 bd cc fb ff ff    	mov    DWORD PTR [rbp-0x434],edi
    1503:	48 89 b5 c0 fb ff ff 	mov    QWORD PTR [rbp-0x440],rsi
    150a:	64 48 8b 04 25 28 00 	mov    rax,QWORD PTR fs:0x28
    1511:	00 00 
    1513:	48 89 45 f8          	mov    QWORD PTR [rbp-0x8],rax
    1517:	31 c0                	xor    eax,eax
    1519:	83 bd cc fb ff ff 02 	cmp    DWORD PTR [rbp-0x434],0x2
    1520:	74 35                	je     1557 <main+0x69>
    1522:	48 8b 85 c0 fb ff ff 	mov    rax,QWORD PTR [rbp-0x440]
    1529:	48 8b 10             	mov    rdx,QWORD PTR [rax]
    152c:	48 8b 05 c5 2a 00 00 	mov    rax,QWORD PTR [rip+0x2ac5]        # 3ff8 <stderr@GLIBC_2.2.5>
    1533:	48 8b 00             	mov    rax,QWORD PTR [rax]
    1536:	48 8d 0d e7 0a 00 00 	lea    rcx,[rip+0xae7]        # 2024 <_IO_stdin_used+0x24>
    153d:	48 89 ce             	mov    rsi,rcx
    1540:	48 89 c7             	mov    rdi,rax
    1543:	b8 00 00 00 00       	mov    eax,0x0
    1548:	e8 f3 fc ff ff       	call   1240 <fprintf@plt>
    154d:	b8 01 00 00 00       	mov    eax,0x1
    1552:	e9 b7 02 00 00       	jmp    180e <main+0x320>
    1557:	48 8b 85 c0 fb ff ff 	mov    rax,QWORD PTR [rbp-0x440]
    155e:	48 83 c0 08          	add    rax,0x8
    1562:	48 8b 00             	mov    rax,QWORD PTR [rax]
    1565:	48 89 c7             	mov    rdi,rax
    1568:	e8 5c fe ff ff       	call   13c9 <create_listner>
    156d:	89 85 d0 fb ff ff    	mov    DWORD PTR [rbp-0x430],eax
    1573:	83 bd d0 fb ff ff 00 	cmp    DWORD PTR [rbp-0x430],0x0
    157a:	79 0a                	jns    1586 <main+0x98>
    157c:	b8 01 00 00 00       	mov    eax,0x1
    1581:	e9 88 02 00 00       	jmp    180e <main+0x320>
    1586:	bf 00 00 08 00       	mov    edi,0x80000
    158b:	e8 30 fd ff ff       	call   12c0 <epoll_create1@plt>
    1590:	89 85 d4 fb ff ff    	mov    DWORD PTR [rbp-0x42c],eax
    1596:	83 bd d4 fb ff ff 00 	cmp    DWORD PTR [rbp-0x42c],0x0
    159d:	79 19                	jns    15b8 <main+0xca>
    159f:	48 8d 05 90 0a 00 00 	lea    rax,[rip+0xa90]        # 2036 <_IO_stdin_used+0x36>
    15a6:	48 89 c7             	mov    rdi,rax
    15a9:	e8 f2 fc ff ff       	call   12a0 <perror@plt>
    15ae:	b8 01 00 00 00       	mov    eax,0x1
    15b3:	e9 56 02 00 00       	jmp    180e <main+0x320>
    15b8:	48 c7 85 e4 fb ff ff 	mov    QWORD PTR [rbp-0x41c],0x0
    15bf:	00 00 00 00 
    15c3:	c7 85 ec fb ff ff 00 	mov    DWORD PTR [rbp-0x414],0x0
    15ca:	00 00 00 
    15cd:	c7 85 e4 fb ff ff 01 	mov    DWORD PTR [rbp-0x41c],0x80000001
    15d4:	00 00 80 
    15d7:	8b 85 d0 fb ff ff    	mov    eax,DWORD PTR [rbp-0x430]
    15dd:	89 85 e8 fb ff ff    	mov    DWORD PTR [rbp-0x418],eax
    15e3:	48 8d 8d e4 fb ff ff 	lea    rcx,[rbp-0x41c]
    15ea:	8b 95 d0 fb ff ff    	mov    edx,DWORD PTR [rbp-0x430]
    15f0:	8b 85 d4 fb ff ff    	mov    eax,DWORD PTR [rbp-0x42c]
    15f6:	be 01 00 00 00       	mov    esi,0x1
    15fb:	89 c7                	mov    edi,eax
    15fd:	e8 1e fc ff ff       	call   1220 <epoll_ctl@plt>
    1602:	c7 85 d8 fb ff ff ff 	mov    DWORD PTR [rbp-0x428],0xffffffff
    1609:	ff ff ff 
    160c:	e8 8f fb ff ff       	call   11a0 <__errno_location@plt>
    1611:	c7 00 00 00 00 00    	mov    DWORD PTR [rax],0x0
    1617:	8b 95 d8 fb ff ff    	mov    edx,DWORD PTR [rbp-0x428]
    161d:	48 8d b5 e4 fb ff ff 	lea    rsi,[rbp-0x41c]
    1624:	8b 85 d4 fb ff ff    	mov    eax,DWORD PTR [rbp-0x42c]
    162a:	89 d1                	mov    ecx,edx
    162c:	ba 01 00 00 00       	mov    edx,0x1
    1631:	89 c7                	mov    edi,eax
    1633:	e8 48 fc ff ff       	call   1280 <epoll_wait@plt>
    1638:	85 c0                	test   eax,eax
    163a:	79 20                	jns    165c <main+0x16e>
    163c:	e8 5f fb ff ff       	call   11a0 <__errno_location@plt>
    1641:	8b 00                	mov    eax,DWORD PTR [rax]
    1643:	83 f8 04             	cmp    eax,0x4
    1646:	75 14                	jne    165c <main+0x16e>
    1648:	48 8d 05 ee 09 00 00 	lea    rax,[rip+0x9ee]        # 203d <_IO_stdin_used+0x3d>
    164f:	48 89 c7             	mov    rdi,rax
    1652:	e8 49 fc ff ff       	call   12a0 <perror@plt>
    1657:	e9 ad 01 00 00       	jmp    1809 <main+0x31b>
    165c:	c7 85 dc fb ff ff 00 	mov    DWORD PTR [rbp-0x424],0x0
    1663:	00 00 00 
    1666:	8b 85 e8 fb ff ff    	mov    eax,DWORD PTR [rbp-0x418]
    166c:	39 85 d0 fb ff ff    	cmp    DWORD PTR [rbp-0x430],eax
    1672:	0f 85 95 00 00 00    	jne    170d <main+0x21f>
    1678:	be 00 00 00 00       	mov    esi,0x0
    167d:	8b 85 d0 fb ff ff    	mov    eax,DWORD PTR [rbp-0x430]
    1683:	b9 00 08 00 00       	mov    ecx,0x800
    1688:	ba 00 00 00 00       	mov    edx,0x0
    168d:	89 c7                	mov    edi,eax
    168f:	e8 4c fb ff ff       	call   11e0 <accept4@plt>
    1694:	89 85 dc fb ff ff    	mov    DWORD PTR [rbp-0x424],eax
    169a:	83 bd dc fb ff ff 00 	cmp    DWORD PTR [rbp-0x424],0x0
    16a1:	79 14                	jns    16b7 <main+0x1c9>
    16a3:	48 8d 05 9a 09 00 00 	lea    rax,[rip+0x99a]        # 2044 <_IO_stdin_used+0x44>
    16aa:	48 89 c7             	mov    rdi,rax
    16ad:	e8 ee fb ff ff       	call   12a0 <perror@plt>
    16b2:	e9 52 01 00 00       	jmp    1809 <main+0x31b>
    16b7:	8b 85 dc fb ff ff    	mov    eax,DWORD PTR [rbp-0x424]
    16bd:	89 c6                	mov    esi,eax
    16bf:	48 8d 05 89 09 00 00 	lea    rax,[rip+0x989]        # 204f <_IO_stdin_used+0x4f>
    16c6:	48 89 c7             	mov    rdi,rax
    16c9:	b8 00 00 00 00       	mov    eax,0x0
    16ce:	e8 2d fb ff ff       	call   1200 <printf@plt>
    16d3:	c7 85 e4 fb ff ff 05 	mov    DWORD PTR [rbp-0x41c],0x80000005
    16da:	00 00 80 
    16dd:	8b 85 dc fb ff ff    	mov    eax,DWORD PTR [rbp-0x424]
    16e3:	89 85 e8 fb ff ff    	mov    DWORD PTR [rbp-0x418],eax
    16e9:	48 8d 8d e4 fb ff ff 	lea    rcx,[rbp-0x41c]
    16f0:	8b 95 dc fb ff ff    	mov    edx,DWORD PTR [rbp-0x424]
    16f6:	8b 85 d4 fb ff ff    	mov    eax,DWORD PTR [rbp-0x42c]
    16fc:	be 01 00 00 00       	mov    esi,0x1
    1701:	89 c7                	mov    edi,eax
    1703:	e8 18 fb ff ff       	call   1220 <epoll_ctl@plt>
    1708:	e9 f5 fe ff ff       	jmp    1602 <main+0x114>
    170d:	48 8d 95 f0 fb ff ff 	lea    rdx,[rbp-0x410]
    1714:	b8 00 00 00 00       	mov    eax,0x0
    1719:	b9 80 00 00 00       	mov    ecx,0x80
    171e:	48 89 d7             	mov    rdi,rdx
    1721:	f3 48 ab             	rep stos QWORD PTR es:[rdi],rax
    1724:	c7 85 e0 fb ff ff 00 	mov    DWORD PTR [rbp-0x420],0x0
    172b:	00 00 00 
    172e:	e9 9d 00 00 00       	jmp    17d0 <main+0x2e2>
    1733:	e8 68 fa ff ff       	call   11a0 <__errno_location@plt>
    1738:	8b 00                	mov    eax,DWORD PTR [rax]
    173a:	83 f8 0b             	cmp    eax,0xb
    173d:	75 19                	jne    1758 <main+0x26a>
    173f:	48 8d 05 17 09 00 00 	lea    rax,[rip+0x917]        # 205d <_IO_stdin_used+0x5d>
    1746:	48 89 c7             	mov    rdi,rax
    1749:	b8 00 00 00 00       	mov    eax,0x0
    174e:	e8 ad fa ff ff       	call   1200 <printf@plt>
    1753:	e9 b1 00 00 00       	jmp    1809 <main+0x31b>
    1758:	e8 43 fa ff ff       	call   11a0 <__errno_location@plt>
    175d:	8b 00                	mov    eax,DWORD PTR [rax]
    175f:	83 f8 04             	cmp    eax,0x4
    1762:	75 11                	jne    1775 <main+0x287>
    1764:	48 8d 05 fa 08 00 00 	lea    rax,[rip+0x8fa]        # 2065 <_IO_stdin_used+0x65>
    176b:	48 89 c7             	mov    rdi,rax
    176e:	e8 3d fa ff ff       	call   11b0 <puts@plt>
    1773:	eb 5b                	jmp    17d0 <main+0x2e2>
    1775:	83 bd e0 fb ff ff 00 	cmp    DWORD PTR [rbp-0x420],0x0
    177c:	75 0f                	jne    178d <main+0x29f>
    177e:	8b 85 e8 fb ff ff    	mov    eax,DWORD PTR [rbp-0x418]
    1784:	89 c7                	mov    edi,eax
    1786:	e8 85 fa ff ff       	call   1210 <close@plt>
    178b:	eb 43                	jmp    17d0 <main+0x2e2>
    178d:	8b 85 e0 fb ff ff    	mov    eax,DWORD PTR [rbp-0x420]
    1793:	48 63 d0             	movsxd rdx,eax
    1796:	8b 85 e8 fb ff ff    	mov    eax,DWORD PTR [rbp-0x418]
    179c:	48 8d 8d f0 fb ff ff 	lea    rcx,[rbp-0x410]
    17a3:	48 89 ce             	mov    rsi,rcx
    17a6:	89 c7                	mov    edi,eax
    17a8:	e8 13 fa ff ff       	call   11c0 <write@plt>
    17ad:	8b 85 e8 fb ff ff    	mov    eax,DWORD PTR [rbp-0x418]
    17b3:	48 8d 95 f0 fb ff ff 	lea    rdx,[rbp-0x410]
    17ba:	89 c6                	mov    esi,eax
    17bc:	48 8d 05 a8 08 00 00 	lea    rax,[rip+0x8a8]        # 206b <_IO_stdin_used+0x6b>
    17c3:	48 89 c7             	mov    rdi,rax
    17c6:	b8 00 00 00 00       	mov    eax,0x0
    17cb:	e8 30 fa ff ff       	call   1200 <printf@plt>
    17d0:	8b 85 e8 fb ff ff    	mov    eax,DWORD PTR [rbp-0x418]
    17d6:	48 8d 8d f0 fb ff ff 	lea    rcx,[rbp-0x410]
    17dd:	ba 00 04 00 00       	mov    edx,0x400
    17e2:	48 89 ce             	mov    rsi,rcx
    17e5:	89 c7                	mov    edi,eax
    17e7:	e8 44 fa ff ff       	call   1230 <read@plt>
    17ec:	48 f7 d0             	not    rax
    17ef:	48 c1 e8 3f          	shr    rax,0x3f
    17f3:	0f b6 c0             	movzx  eax,al
    17f6:	89 85 e0 fb ff ff    	mov    DWORD PTR [rbp-0x420],eax
    17fc:	83 bd e0 fb ff ff 00 	cmp    DWORD PTR [rbp-0x420],0x0
    1803:	0f 85 2a ff ff ff    	jne    1733 <main+0x245>
    1809:	e9 f4 fd ff ff       	jmp    1602 <main+0x114>
    180e:	48 8b 55 f8          	mov    rdx,QWORD PTR [rbp-0x8]
    1812:	64 48 2b 14 25 28 00 	sub    rdx,QWORD PTR fs:0x28
    1819:	00 00 
    181b:	74 05                	je     1822 <main+0x334>
    181d:	e8 ae f9 ff ff       	call   11d0 <__stack_chk_fail@plt>
    1822:	c9                   	leave
    1823:	c3                   	ret

0000000000001824 <newQueue>:
    1824:	f3 0f 1e fa          	endbr64
    1828:	55                   	push   rbp
    1829:	48 89 e5             	mov    rbp,rsp
    182c:	48 83 ec 20          	sub    rsp,0x20
    1830:	48 89 7d e8          	mov    QWORD PTR [rbp-0x18],rdi
    1834:	48 8b 45 e8          	mov    rax,QWORD PTR [rbp-0x18]
    1838:	48 c1 e0 03          	shl    rax,0x3
    183c:	48 89 c7             	mov    rdi,rax
    183f:	e8 1c fa ff ff       	call   1260 <malloc@plt>
    1844:	48 89 45 f0          	mov    QWORD PTR [rbp-0x10],rax
    1848:	48 83 7d f0 00       	cmp    QWORD PTR [rbp-0x10],0x0
    184d:	75 0a                	jne    1859 <newQueue+0x35>
    184f:	b8 00 00 00 00       	mov    eax,0x0
    1854:	e9 83 00 00 00       	jmp    18dc <newQueue+0xb8>
    1859:	bf 28 00 00 00       	mov    edi,0x28
    185e:	e8 fd f9 ff ff       	call   1260 <malloc@plt>
    1863:	48 89 45 f8          	mov    QWORD PTR [rbp-0x8],rax
    1867:	48 83 7d f8 00       	cmp    QWORD PTR [rbp-0x8],0x0
    186c:	75 13                	jne    1881 <newQueue+0x5d>
    186e:	48 8b 45 f0          	mov    rax,QWORD PTR [rbp-0x10]
    1872:	48 89 c7             	mov    rdi,rax
    1875:	e8 16 f9 ff ff       	call   1190 <free@plt>
    187a:	b8 00 00 00 00       	mov    eax,0x0
    187f:	eb 5b                	jmp    18dc <newQueue+0xb8>
    1881:	48 8b 55 f0          	mov    rdx,QWORD PTR [rbp-0x10]
    1885:	48 8b 45 f8          	mov    rax,QWORD PTR [rbp-0x8]
    1889:	48 89 10             	mov    QWORD PTR [rax],rdx
    188c:	48 8b 45 e8          	mov    rax,QWORD PTR [rbp-0x18]
    1890:	48 8d 14 c5 00 00 00 	lea    rdx,[rax*8+0x0]
    1897:	00 
    1898:	48 8b 45 f0          	mov    rax,QWORD PTR [rbp-0x10]
    189c:	48 01 d0             	add    rax,rdx
    189f:	48 89 c2             	mov    rdx,rax
    18a2:	48 8b 45 f8          	mov    rax,QWORD PTR [rbp-0x8]
    18a6:	48 89 50 08          	mov    QWORD PTR [rax+0x8],rdx
    18aa:	48 8b 55 f0          	mov    rdx,QWORD PTR [rbp-0x10]
    18ae:	48 8b 45 f8          	mov    rax,QWORD PTR [rbp-0x8]
    18b2:	48 89 50 10          	mov    QWORD PTR [rax+0x10],rdx
    18b6:	48 8b 55 f0          	mov    rdx,QWORD PTR [rbp-0x10]
    18ba:	48 8b 45 f8          	mov    rax,QWORD PTR [rbp-0x8]
    18be:	48 89 50 18          	mov    QWORD PTR [rax+0x18],rdx
    18c2:	48 8b 45 f8          	mov    rax,QWORD PTR [rbp-0x8]
    18c6:	c7 40 20 00 00 00 00 	mov    DWORD PTR [rax+0x20],0x0
    18cd:	48 8b 45 f8          	mov    rax,QWORD PTR [rbp-0x8]
    18d1:	c7 40 24 ff ff ff ff 	mov    DWORD PTR [rax+0x24],0xffffffff
    18d8:	48 8b 45 f8          	mov    rax,QWORD PTR [rbp-0x8]
    18dc:	c9                   	leave
    18dd:	c3                   	ret

00000000000018de <deleteQueue>:
    18de:	f3 0f 1e fa          	endbr64
    18e2:	55                   	push   rbp
    18e3:	48 89 e5             	mov    rbp,rsp
    18e6:	48 83 ec 10          	sub    rsp,0x10
    18ea:	48 89 7d f8          	mov    QWORD PTR [rbp-0x8],rdi
    18ee:	48 83 7d f8 00       	cmp    QWORD PTR [rbp-0x8],0x0
    18f3:	74 1d                	je     1912 <deleteQueue+0x34>
    18f5:	48 8b 45 f8          	mov    rax,QWORD PTR [rbp-0x8]
    18f9:	48 8b 00             	mov    rax,QWORD PTR [rax]
    18fc:	48 89 c7             	mov    rdi,rax
    18ff:	e8 8c f8 ff ff       	call   1190 <free@plt>
    1904:	48 8b 45 f8          	mov    rax,QWORD PTR [rbp-0x8]
    1908:	48 89 c7             	mov    rdi,rax
    190b:	e8 80 f8 ff ff       	call   1190 <free@plt>
    1910:	eb 01                	jmp    1913 <deleteQueue+0x35>
    1912:	90                   	nop
    1913:	c9                   	leave
    1914:	c3                   	ret

0000000000001915 <queue_push>:
    1915:	f3 0f 1e fa          	endbr64
    1919:	55                   	push   rbp
    191a:	48 89 e5             	mov    rbp,rsp
    191d:	48 89 7d e8          	mov    QWORD PTR [rbp-0x18],rdi
    1921:	48 89 75 e0          	mov    QWORD PTR [rbp-0x20],rsi
    1925:	48 83 7d e8 00       	cmp    QWORD PTR [rbp-0x18],0x0
    192a:	75 0a                	jne    1936 <queue_push+0x21>
    192c:	b8 ff ff ff ff       	mov    eax,0xffffffff
    1931:	e9 91 00 00 00       	jmp    19c7 <queue_push+0xb2>
    1936:	48 8b 45 e8          	mov    rax,QWORD PTR [rbp-0x18]
    193a:	48 8b 50 18          	mov    rdx,QWORD PTR [rax+0x18]
    193e:	48 8b 45 e8          	mov    rax,QWORD PTR [rbp-0x18]
    1942:	48 8b 40 10          	mov    rax,QWORD PTR [rax+0x10]
    1946:	48 39 c2             	cmp    rdx,rax
    1949:	75 12                	jne    195d <queue_push+0x48>
    194b:	48 8b 45 e8          	mov    rax,QWORD PTR [rbp-0x18]
    194f:	8b 40 20             	mov    eax,DWORD PTR [rax+0x20]
    1952:	85 c0                	test   eax,eax
    1954:	74 07                	je     195d <queue_push+0x48>
    1956:	b8 fd ff ff ff       	mov    eax,0xfffffffd
    195b:	eb 6a                	jmp    19c7 <queue_push+0xb2>
    195d:	48 8b 45 e8          	mov    rax,QWORD PTR [rbp-0x18]
    1961:	48 8b 55 e0          	mov    rdx,QWORD PTR [rbp-0x20]
    1965:	48 89 50 18          	mov    QWORD PTR [rax+0x18],rdx
    1969:	48 8b 45 e8          	mov    rax,QWORD PTR [rbp-0x18]
    196d:	48 8b 40 18          	mov    rax,QWORD PTR [rax+0x18]
    1971:	48 83 c0 08          	add    rax,0x8
    1975:	48 89 45 f8          	mov    QWORD PTR [rbp-0x8],rax
    1979:	48 8b 45 e8          	mov    rax,QWORD PTR [rbp-0x18]
    197d:	48 8b 40 08          	mov    rax,QWORD PTR [rax+0x8]
    1981:	48 39 45 f8          	cmp    QWORD PTR [rbp-0x8],rax
    1985:	72 0b                	jb     1992 <queue_push+0x7d>
    1987:	48 8b 45 e8          	mov    rax,QWORD PTR [rbp-0x18]
    198b:	48 8b 00             	mov    rax,QWORD PTR [rax]
    198e:	48 89 45 f8          	mov    QWORD PTR [rbp-0x8],rax
    1992:	48 8b 45 e8          	mov    rax,QWORD PTR [rbp-0x18]
    1996:	48 8b 40 10          	mov    rax,QWORD PTR [rax+0x10]
    199a:	48 39 45 f8          	cmp    QWORD PTR [rbp-0x8],rax
    199e:	75 0b                	jne    19ab <queue_push+0x96>
    19a0:	48 8b 45 e8          	mov    rax,QWORD PTR [rbp-0x18]
    19a4:	c7 40 20 ff ff ff ff 	mov    DWORD PTR [rax+0x20],0xffffffff
    19ab:	48 8b 45 e8          	mov    rax,QWORD PTR [rbp-0x18]
    19af:	48 8b 55 f8          	mov    rdx,QWORD PTR [rbp-0x8]
    19b3:	48 89 50 18          	mov    QWORD PTR [rax+0x18],rdx
    19b7:	48 8b 45 e8          	mov    rax,QWORD PTR [rbp-0x18]
    19bb:	c7 40 24 00 00 00 00 	mov    DWORD PTR [rax+0x24],0x0
    19c2:	b8 00 00 00 00       	mov    eax,0x0
    19c7:	5d                   	pop    rbp
    19c8:	c3                   	ret

00000000000019c9 <queue_pop>:
    19c9:	f3 0f 1e fa          	endbr64
    19cd:	55                   	push   rbp
    19ce:	48 89 e5             	mov    rbp,rsp
    19d1:	48 89 7d e8          	mov    QWORD PTR [rbp-0x18],rdi
    19d5:	48 89 75 e0          	mov    QWORD PTR [rbp-0x20],rsi
    19d9:	48 83 7d e0 00       	cmp    QWORD PTR [rbp-0x20],0x0
    19de:	75 0a                	jne    19ea <queue_pop+0x21>
    19e0:	b8 ff ff ff ff       	mov    eax,0xffffffff
    19e5:	e9 aa 00 00 00       	jmp    1a94 <queue_pop+0xcb>
    19ea:	48 83 7d e8 00       	cmp    QWORD PTR [rbp-0x18],0x0
    19ef:	75 0a                	jne    19fb <queue_pop+0x32>
    19f1:	b8 ff ff ff ff       	mov    eax,0xffffffff
    19f6:	e9 99 00 00 00       	jmp    1a94 <queue_pop+0xcb>
    19fb:	48 8b 45 e8          	mov    rax,QWORD PTR [rbp-0x18]
    19ff:	48 8b 50 10          	mov    rdx,QWORD PTR [rax+0x10]
    1a03:	48 8b 45 e8          	mov    rax,QWORD PTR [rbp-0x18]
    1a07:	48 8b 40 18          	mov    rax,QWORD PTR [rax+0x18]
    1a0b:	48 39 c2             	cmp    rdx,rax
    1a0e:	75 25                	jne    1a35 <queue_pop+0x6c>
    1a10:	48 8b 45 e8          	mov    rax,QWORD PTR [rbp-0x18]
    1a14:	8b 40 20             	mov    eax,DWORD PTR [rax+0x20]
    1a17:	85 c0                	test   eax,eax
    1a19:	75 1a                	jne    1a35 <queue_pop+0x6c>
    1a1b:	48 c7 45 e0 00 00 00 	mov    QWORD PTR [rbp-0x20],0x0
    1a22:	00 
    1a23:	48 8b 45 e8          	mov    rax,QWORD PTR [rbp-0x18]
    1a27:	c7 40 24 ff ff ff ff 	mov    DWORD PTR [rax+0x24],0xffffffff
    1a2e:	b8 fe ff ff ff       	mov    eax,0xfffffffe
    1a33:	eb 5f                	jmp    1a94 <queue_pop+0xcb>
    1a35:	48 8b 45 e8          	mov    rax,QWORD PTR [rbp-0x18]
    1a39:	48 8b 40 10          	mov    rax,QWORD PTR [rax+0x10]
    1a3d:	48 89 45 e0          	mov    QWORD PTR [rbp-0x20],rax
    1a41:	48 8b 45 e8          	mov    rax,QWORD PTR [rbp-0x18]
    1a45:	48 8b 40 10          	mov    rax,QWORD PTR [rax+0x10]
    1a49:	48 83 c0 08          	add    rax,0x8
    1a4d:	48 89 45 f8          	mov    QWORD PTR [rbp-0x8],rax
    1a51:	48 8b 45 e8          	mov    rax,QWORD PTR [rbp-0x18]
    1a55:	48 8b 40 08          	mov    rax,QWORD PTR [rax+0x8]
    1a59:	48 39 45 f8          	cmp    QWORD PTR [rbp-0x8],rax
    1a5d:	72 0b                	jb     1a6a <queue_pop+0xa1>
    1a5f:	48 8b 45 e8          	mov    rax,QWORD PTR [rbp-0x18]
    1a63:	48 8b 00             	mov    rax,QWORD PTR [rax]
    1a66:	48 89 45 f8          	mov    QWORD PTR [rbp-0x8],rax
    1a6a:	48 8b 45 e8          	mov    rax,QWORD PTR [rbp-0x18]
    1a6e:	48 8b 40 18          	mov    rax,QWORD PTR [rax+0x18]
    1a72:	48 39 45 f8          	cmp    QWORD PTR [rbp-0x8],rax
    1a76:	75 0b                	jne    1a83 <queue_pop+0xba>
    1a78:	48 8b 45 e8          	mov    rax,QWORD PTR [rbp-0x18]
    1a7c:	c7 40 20 00 00 00 00 	mov    DWORD PTR [rax+0x20],0x0
    1a83:	48 8b 45 e8          	mov    rax,QWORD PTR [rbp-0x18]
    1a87:	48 8b 55 f8          	mov    rdx,QWORD PTR [rbp-0x8]
    1a8b:	48 89 50 10          	mov    QWORD PTR [rax+0x10],rdx
    1a8f:	b8 00 00 00 00       	mov    eax,0x0
    1a94:	5d                   	pop    rbp
    1a95:	c3                   	ret

0000000000001a96 <threadpool_create>:
    1a96:	f3 0f 1e fa          	endbr64
    1a9a:	55                   	push   rbp
    1a9b:	48 89 e5             	mov    rbp,rsp
    1a9e:	48 83 ec 30          	sub    rsp,0x30
    1aa2:	48 89 7d d8          	mov    QWORD PTR [rbp-0x28],rdi
    1aa6:	64 48 8b 04 25 28 00 	mov    rax,QWORD PTR fs:0x28
    1aad:	00 00 
    1aaf:	48 89 45 f8          	mov    QWORD PTR [rbp-0x8],rax
    1ab3:	31 c0                	xor    eax,eax
    1ab5:	48 89 e0             	mov    rax,rsp
    1ab8:	48 89 c6             	mov    rsi,rax
    1abb:	48 8b 45 d8          	mov    rax,QWORD PTR [rbp-0x28]
    1abf:	c7 00 10 00 00 00    	mov    DWORD PTR [rax],0x10
    1ac5:	48 8b 45 d8          	mov    rax,QWORD PTR [rbp-0x28]
    1ac9:	8b 00                	mov    eax,DWORD PTR [rax]
    1acb:	48 63 d0             	movsxd rdx,eax
    1ace:	48 83 ea 01          	sub    rdx,0x1
    1ad2:	48 89 55 e8          	mov    QWORD PTR [rbp-0x18],rdx
    1ad6:	48 98                	cdqe
    1ad8:	48 8d 14 c5 00 00 00 	lea    rdx,[rax*8+0x0]
    1adf:	00 
    1ae0:	b8 10 00 00 00       	mov    eax,0x10
    1ae5:	48 83 e8 01          	sub    rax,0x1
    1ae9:	48 01 d0             	add    rax,rdx
    1aec:	bf 10 00 00 00       	mov    edi,0x10
    1af1:	ba 00 00 00 00       	mov    edx,0x0
    1af6:	48 f7 f7             	div    rdi
    1af9:	48 6b c0 10          	imul   rax,rax,0x10
    1afd:	48 89 c1             	mov    rcx,rax
    1b00:	48 81 e1 00 f0 ff ff 	and    rcx,0xfffffffffffff000
    1b07:	48 89 e2             	mov    rdx,rsp
    1b0a:	48 29 ca             	sub    rdx,rcx
    1b0d:	48 39 d4             	cmp    rsp,rdx
    1b10:	74 12                	je     1b24 <threadpool_create+0x8e>
    1b12:	48 81 ec 00 10 00 00 	sub    rsp,0x1000
    1b19:	48 83 8c 24 f8 0f 00 	or     QWORD PTR [rsp+0xff8],0x0
    1b20:	00 00 
    1b22:	eb e9                	jmp    1b0d <threadpool_create+0x77>
    1b24:	48 89 c2             	mov    rdx,rax
    1b27:	81 e2 ff 0f 00 00    	and    edx,0xfff
    1b2d:	48 29 d4             	sub    rsp,rdx
    1b30:	48 89 c2             	mov    rdx,rax
    1b33:	81 e2 ff 0f 00 00    	and    edx,0xfff
    1b39:	48 85 d2             	test   rdx,rdx
    1b3c:	74 10                	je     1b4e <threadpool_create+0xb8>
    1b3e:	25 ff 0f 00 00       	and    eax,0xfff
    1b43:	48 83 e8 08          	sub    rax,0x8
    1b47:	48 01 e0             	add    rax,rsp
    1b4a:	48 83 08 00          	or     QWORD PTR [rax],0x0
    1b4e:	48 89 e0             	mov    rax,rsp
    1b51:	48 83 c0 07          	add    rax,0x7
    1b55:	48 c1 e8 03          	shr    rax,0x3
    1b59:	48 c1 e0 03          	shl    rax,0x3
    1b5d:	48 89 45 f0          	mov    QWORD PTR [rbp-0x10],rax
    1b61:	c7 45 e4 00 00 00 00 	mov    DWORD PTR [rbp-0x1c],0x0
    1b68:	eb 04                	jmp    1b6e <threadpool_create+0xd8>
    1b6a:	83 45 e4 01          	add    DWORD PTR [rbp-0x1c],0x1
    1b6e:	48 8b 45 d8          	mov    rax,QWORD PTR [rbp-0x28]
    1b72:	8b 00                	mov    eax,DWORD PTR [rax]
    1b74:	39 45 e4             	cmp    DWORD PTR [rbp-0x1c],eax
    1b77:	7c f1                	jl     1b6a <threadpool_create+0xd4>
    1b79:	48 89 f4             	mov    rsp,rsi
    1b7c:	90                   	nop
    1b7d:	48 8b 45 f8          	mov    rax,QWORD PTR [rbp-0x8]
    1b81:	64 48 2b 04 25 28 00 	sub    rax,QWORD PTR fs:0x28
    1b88:	00 00 
    1b8a:	74 05                	je     1b91 <threadpool_create+0xfb>
    1b8c:	e8 3f f6 ff ff       	call   11d0 <__stack_chk_fail@plt>
    1b91:	c9                   	leave
    1b92:	c3                   	ret

0000000000001b93 <threadpool_get_free_thread>:
    1b93:	f3 0f 1e fa          	endbr64
    1b97:	55                   	push   rbp
    1b98:	48 89 e5             	mov    rbp,rsp
    1b9b:	48 89 7d e8          	mov    QWORD PTR [rbp-0x18],rdi
    1b9f:	c7 45 fc 00 00 00 00 	mov    DWORD PTR [rbp-0x4],0x0
    1ba6:	eb 24                	jmp    1bcc <threadpool_get_free_thread+0x39>
    1ba8:	48 8b 45 e8          	mov    rax,QWORD PTR [rbp-0x18]
    1bac:	48 8b 40 08          	mov    rax,QWORD PTR [rax+0x8]
    1bb0:	8b 55 fc             	mov    edx,DWORD PTR [rbp-0x4]
    1bb3:	48 63 d2             	movsxd rdx,edx
    1bb6:	48 c1 e2 02          	shl    rdx,0x2
    1bba:	48 01 d0             	add    rax,rdx
    1bbd:	8b 00                	mov    eax,DWORD PTR [rax]
    1bbf:	85 c0                	test   eax,eax
    1bc1:	75 05                	jne    1bc8 <threadpool_get_free_thread+0x35>
    1bc3:	8b 45 fc             	mov    eax,DWORD PTR [rbp-0x4]
    1bc6:	eb 14                	jmp    1bdc <threadpool_get_free_thread+0x49>
    1bc8:	83 45 fc 01          	add    DWORD PTR [rbp-0x4],0x1
    1bcc:	48 8b 45 e8          	mov    rax,QWORD PTR [rbp-0x18]
    1bd0:	8b 00                	mov    eax,DWORD PTR [rax]
    1bd2:	39 45 fc             	cmp    DWORD PTR [rbp-0x4],eax
    1bd5:	7c d1                	jl     1ba8 <threadpool_get_free_thread+0x15>
    1bd7:	b8 ff ff ff ff       	mov    eax,0xffffffff
    1bdc:	5d                   	pop    rbp
    1bdd:	c3                   	ret

0000000000001bde <threadpool_add_task>:
    1bde:	f3 0f 1e fa          	endbr64
    1be2:	55                   	push   rbp
    1be3:	48 89 e5             	mov    rbp,rsp
    1be6:	48 89 7d e8          	mov    QWORD PTR [rbp-0x18],rdi
    1bea:	48 89 75 e0          	mov    QWORD PTR [rbp-0x20],rsi
    1bee:	48 89 55 d8          	mov    QWORD PTR [rbp-0x28],rdx
    1bf2:	c7 45 fc 00 00 00 00 	mov    DWORD PTR [rbp-0x4],0x0
    1bf9:	eb 3a                	jmp    1c35 <threadpool_add_task+0x57>
    1bfb:	48 8b 45 e8          	mov    rax,QWORD PTR [rbp-0x18]
    1bff:	48 8b 40 08          	mov    rax,QWORD PTR [rax+0x8]
    1c03:	8b 55 fc             	mov    edx,DWORD PTR [rbp-0x4]
    1c06:	48 63 d2             	movsxd rdx,edx
    1c09:	48 c1 e2 02          	shl    rdx,0x2
    1c0d:	48 01 d0             	add    rax,rdx
    1c10:	8b 00                	mov    eax,DWORD PTR [rax]
    1c12:	85 c0                	test   eax,eax
    1c14:	75 1b                	jne    1c31 <threadpool_add_task+0x53>
    1c16:	48 8b 45 e8          	mov    rax,QWORD PTR [rbp-0x18]
    1c1a:	48 8b 40 08          	mov    rax,QWORD PTR [rax+0x8]
    1c1e:	8b 55 fc             	mov    edx,DWORD PTR [rbp-0x4]
    1c21:	48 63 d2             	movsxd rdx,edx
    1c24:	48 c1 e2 02          	shl    rdx,0x2
    1c28:	48 01 d0             	add    rax,rdx
    1c2b:	c7 00 01 00 00 00    	mov    DWORD PTR [rax],0x1
    1c31:	83 45 fc 01          	add    DWORD PTR [rbp-0x4],0x1
    1c35:	48 8b 45 e8          	mov    rax,QWORD PTR [rbp-0x18]
    1c39:	8b 00                	mov    eax,DWORD PTR [rax]
    1c3b:	39 45 fc             	cmp    DWORD PTR [rbp-0x4],eax
    1c3e:	7c bb                	jl     1bfb <threadpool_add_task+0x1d>
    1c40:	90                   	nop
    1c41:	90                   	nop
    1c42:	5d                   	pop    rbp
    1c43:	c3                   	ret

0000000000001c44 <threadpool_handler>:
    1c44:	f3 0f 1e fa          	endbr64
    1c48:	55                   	push   rbp
    1c49:	48 89 e5             	mov    rbp,rsp
    1c4c:	48 83 ec 20          	sub    rsp,0x20
    1c50:	48 89 7d e8          	mov    QWORD PTR [rbp-0x18],rdi
    1c54:	48 89 75 e0          	mov    QWORD PTR [rbp-0x20],rsi
    1c58:	48 8b 45 e0          	mov    rax,QWORD PTR [rbp-0x20]
    1c5c:	8b 40 24             	mov    eax,DWORD PTR [rax+0x24]
    1c5f:	85 c0                	test   eax,eax
    1c61:	75 52                	jne    1cb5 <threadpool_handler+0x71>
    1c63:	c7 45 f4 ff ff ff ff 	mov    DWORD PTR [rbp-0xc],0xffffffff
    1c6a:	48 8b 45 e8          	mov    rax,QWORD PTR [rbp-0x18]
    1c6e:	48 89 c7             	mov    rdi,rax
    1c71:	e8 1d ff ff ff       	call   1b93 <threadpool_get_free_thread>
    1c76:	89 45 f4             	mov    DWORD PTR [rbp-0xc],eax
    1c79:	83 7d f4 ff          	cmp    DWORD PTR [rbp-0xc],0xffffffff
    1c7d:	74 36                	je     1cb5 <threadpool_handler+0x71>
    1c7f:	48 c7 45 f8 00 00 00 	mov    QWORD PTR [rbp-0x8],0x0
    1c86:	00 
    1c87:	48 8b 55 f8          	mov    rdx,QWORD PTR [rbp-0x8]
    1c8b:	48 8b 45 e0          	mov    rax,QWORD PTR [rbp-0x20]
    1c8f:	48 89 d6             	mov    rsi,rdx
    1c92:	48 89 c7             	mov    rdi,rax
    1c95:	e8 2f fd ff ff       	call   19c9 <queue_pop>
    1c9a:	85 c0                	test   eax,eax
    1c9c:	75 17                	jne    1cb5 <threadpool_handler+0x71>
    1c9e:	48 8b 55 f8          	mov    rdx,QWORD PTR [rbp-0x8]
    1ca2:	48 8b 4d e0          	mov    rcx,QWORD PTR [rbp-0x20]
    1ca6:	48 8b 45 e8          	mov    rax,QWORD PTR [rbp-0x18]
    1caa:	48 89 ce             	mov    rsi,rcx
    1cad:	48 89 c7             	mov    rdi,rax
    1cb0:	e8 29 ff ff ff       	call   1bde <threadpool_add_task>
    1cb5:	90                   	nop
    1cb6:	c9                   	leave
    1cb7:	c3                   	ret

Disassembly of section .fini:

0000000000001cb8 <_fini>:
    1cb8:	f3 0f 1e fa          	endbr64
    1cbc:	48 83 ec 08          	sub    rsp,0x8
    1cc0:	48 83 c4 08          	add    rsp,0x8
    1cc4:	c3                   	ret
